target datalayout = "e-m:e-p270:32:32-p271:32:32-p272:64:64-i64:64-i128:128-f80:128-n8:16:32:64-S128"
target triple = "x86_64-pc-linux-gnu"

@MinTLABSize = external global i64, align 8
@.str.22 = private unnamed_addr constant [67 x i8] c"TLABSize (%lu) must be greater than or equal to MinTLABSize (%lu)\0A\00", align 1
@.str.23 = private unnamed_addr constant [80 x i8] c"TLABSize (%lu) must be less than or equal to ergonomic TLAB maximum size (%lu)\0A\00", align 1
@_ZN22ThreadLocalAllocBuffer9_max_sizeE = external global i64, align 8

; Function Attrs: mustprogress nounwind uwtable
define linkonce_odr hidden noundef i64 @_ZN22ThreadLocalAllocBuffer8max_sizeEv() #1 comdat align 2 {
  %1 = load i64, ptr @_ZN22ThreadLocalAllocBuffer9_max_sizeE, align 8
  ret i64 %1
}

; Function Attrs: mustprogress nounwind uwtable
define hidden noundef i32 @_Z22TLABSizeConstraintFuncmb(i64 noundef %0, i1 noundef zeroext %1) #1 {
  %3 = alloca i32, align 4
  %4 = alloca i64, align 8
  %5 = alloca i8, align 1
  store i64 %0, ptr %4, align 8
  %6 = zext i1 %1 to i8
  store i8 %6, ptr %5, align 1
  %7 = call noundef zeroext i1 @_ZN7JVMFlag10is_cmdlineE12JVMFlagsEnum(i32 noundef 1216)
  br i1 %7, label %8, label %29

8:                                                ; preds = %2
  %9 = load i64, ptr %4, align 8
  %10 = load i64, ptr @MinTLABSize, align 8
  %11 = icmp ult i64 %9, %10
  br i1 %11, label %12, label %17

12:                                               ; preds = %8
  %13 = load i8, ptr %5, align 1
  %14 = trunc i8 %13 to i1
  %15 = load i64, ptr %4, align 8
  %16 = load i64, ptr @MinTLABSize, align 8
  call void (i1, ptr, ...) @_ZN7JVMFlag10printErrorEbPKcz(i1 noundef zeroext %14, ptr noundef @.str.22, i64 noundef %15, i64 noundef %16)
  store i32 6, ptr %3, align 4
  br label %30

17:                                               ; preds = %8
  %18 = load i64, ptr %4, align 8
  %19 = call noundef i64 @_ZN22ThreadLocalAllocBuffer8max_sizeEv()
  %20 = mul i64 %19, 8
  %21 = icmp ugt i64 %18, %20
  br i1 %21, label %22, label %28

22:                                               ; preds = %17
  %23 = load i8, ptr %5, align 1
  %24 = trunc i8 %23 to i1
  %25 = load i64, ptr %4, align 8
  %26 = call noundef i64 @_ZN22ThreadLocalAllocBuffer8max_sizeEv()
  %27 = mul i64 %26, 8
  call void (i1, ptr, ...) @_ZN7JVMFlag10printErrorEbPKcz(i1 noundef zeroext %24, ptr noundef @.str.23, i64 noundef %25, i64 noundef %27)
  store i32 6, ptr %3, align 4
  br label %30

28:                                               ; preds = %17
  br label %29

29:                                               ; preds = %28, %2
  store i32 0, ptr %3, align 4
  br label %30

30:                                               ; preds = %29, %22, %12
  %31 = load i32, ptr %3, align 4
  ret i32 %31
}