; Function Attrs: mustprogress nounwind uwtable
define hidden noundef range(i32 0, 7) i32 @_Z22TLABSizeConstraintFuncmb(i64 noundef %0, i1 noundef zeroext %1) local_unnamed_addr #0 {
  %3 = tail call noundef zeroext i1 @_ZN7JVMFlag10is_cmdlineE12JVMFlagsEnum(i32 noundef 1216) #4
  br i1 %3, label %4, label %13

4:                                                ; preds = %2
  %5 = load i64, ptr @MinTLABSize, align 8
  %6 = icmp ugt i64 %5, %0
  br i1 %6, label %7, label %8

7:                                                ; preds = %4
  tail call void (i1, ptr, ...) @_ZN7JVMFlag10printErrorEbPKcz(i1 noundef zeroext %1, ptr noundef nonnull @.str.22, i64 noundef %0, i64 noundef %5) #4
  br label %13

8:                                                ; preds = %4
  %9 = load i64, ptr @_ZN22ThreadLocalAllocBuffer9_max_sizeE, align 8
  %10 = shl i64 %9, 3
  %11 = icmp ult i64 %10, %0
  br i1 %11, label %12, label %13

12:                                               ; preds = %8
  tail call void (i1, ptr, ...) @_ZN7JVMFlag10printErrorEbPKcz(i1 noundef zeroext %1, ptr noundef nonnull @.str.23, i64 noundef %0, i64 noundef %10) #4
  br label %13

13:                                               ; preds = %2, %8, %12, %7
  %.0 = phi i32 [ 6, %7 ], [ 6, %12 ], [ 0, %8 ], [ 0, %2 ]
  ret i32 %.0
}